; ModuleID = '9/1237.c'
source_filename = "9/1237.c"
target datalayout = "e-m:e-p270:32:32-p271:32:32-p272:64:64-i64:64-f80:128-n8:16:32:64-S128"
target triple = "x86_64-pc-linux-gnu"

%struct.patients = type { i32, [10 x i8], i32 }

@.str = private unnamed_addr constant [3 x i8] c"%d\00", align 1
@.str.1 = private unnamed_addr constant [6 x i8] c"%s %d\00", align 1
@.str.2 = private unnamed_addr constant [4 x i8] c"%s\0A\00", align 1

; Function Attrs: noinline nounwind uwtable
define dso_local i32 @main() #0 {
  %1 = alloca i32, align 4
  %2 = alloca i32, align 4
  %3 = alloca i32, align 4
  %4 = alloca i32, align 4
  %5 = alloca i32, align 4
  %6 = alloca i32, align 4
  %7 = alloca [100 x %struct.patients], align 16
  %8 = alloca [100 x %struct.patients], align 16
  %9 = alloca [100 x %struct.patients], align 16
  %10 = alloca %struct.patients, align 4
  store i32 0, i32* %1, align 4
  %11 = call i32 (i8*, ...) @__isoc99_scanf(i8* getelementptr inbounds ([3 x i8], [3 x i8]* @.str, i64 0, i64 0), i32* %2)
  store i32 0, i32* %3, align 4
  br label %12

12:                                               ; preds = %32, %0
  %13 = load i32, i32* %3, align 4
  %14 = load i32, i32* %2, align 4
  %15 = icmp slt i32 %13, %14
  br i1 %15, label %16, label %35

16:                                               ; preds = %12
  %17 = load i32, i32* %3, align 4
  %18 = load i32, i32* %3, align 4
  %19 = sext i32 %18 to i64
  %20 = getelementptr inbounds [100 x %struct.patients], [100 x %struct.patients]* %7, i64 0, i64 %19
  %21 = getelementptr inbounds %struct.patients, %struct.patients* %20, i32 0, i32 0
  store i32 %17, i32* %21, align 4
  %22 = load i32, i32* %3, align 4
  %23 = sext i32 %22 to i64
  %24 = getelementptr inbounds [100 x %struct.patients], [100 x %struct.patients]* %7, i64 0, i64 %23
  %25 = getelementptr inbounds %struct.patients, %struct.patients* %24, i32 0, i32 1
  %26 = getelementptr inbounds [10 x i8], [10 x i8]* %25, i64 0, i64 0
  %27 = load i32, i32* %3, align 4
  %28 = sext i32 %27 to i64
  %29 = getelementptr inbounds [100 x %struct.patients], [100 x %struct.patients]* %7, i64 0, i64 %28
  %30 = getelementptr inbounds %struct.patients, %struct.patients* %29, i32 0, i32 2
  %31 = call i32 (i8*, ...) @__isoc99_scanf(i8* getelementptr inbounds ([6 x i8], [6 x i8]* @.str.1, i64 0, i64 0), i8* %26, i32* %30)
  br label %32

32:                                               ; preds = %16
  %33 = load i32, i32* %3, align 4
  %34 = add nsw i32 %33, 1
  store i32 %34, i32* %3, align 4
  br label %12

35:                                               ; preds = %12
  store i32 0, i32* %5, align 4
  store i32 0, i32* %6, align 4
  store i32 0, i32* %3, align 4
  br label %36

36:                                               ; preds = %70, %35
  %37 = load i32, i32* %3, align 4
  %38 = load i32, i32* %2, align 4
  %39 = icmp slt i32 %37, %38
  br i1 %39, label %40, label %73

40:                                               ; preds = %36
  %41 = load i32, i32* %3, align 4
  %42 = sext i32 %41 to i64
  %43 = getelementptr inbounds [100 x %struct.patients], [100 x %struct.patients]* %7, i64 0, i64 %42
  %44 = getelementptr inbounds %struct.patients, %struct.patients* %43, i32 0, i32 2
  %45 = load i32, i32* %44, align 4
  %46 = icmp sge i32 %45, 60
  br i1 %46, label %47, label %58

47:                                               ; preds = %40
  %48 = load i32, i32* %6, align 4
  %49 = sext i32 %48 to i64
  %50 = getelementptr inbounds [100 x %struct.patients], [100 x %struct.patients]* %9, i64 0, i64 %49
  %51 = load i32, i32* %3, align 4
  %52 = sext i32 %51 to i64
  %53 = getelementptr inbounds [100 x %struct.patients], [100 x %struct.patients]* %7, i64 0, i64 %52
  %54 = bitcast %struct.patients* %50 to i8*
  %55 = bitcast %struct.patients* %53 to i8*
  call void @llvm.memcpy.p0i8.p0i8.i64(i8* align 4 %54, i8* align 4 %55, i64 20, i1 false)
  %56 = load i32, i32* %6, align 4
  %57 = add nsw i32 %56, 1
  store i32 %57, i32* %6, align 4
  br label %69

58:                                               ; preds = %40
  %59 = load i32, i32* %5, align 4
  %60 = sext i32 %59 to i64
  %61 = getelementptr inbounds [100 x %struct.patients], [100 x %struct.patients]* %8, i64 0, i64 %60
  %62 = load i32, i32* %3, align 4
  %63 = sext i32 %62 to i64
  %64 = getelementptr inbounds [100 x %struct.patients], [100 x %struct.patients]* %7, i64 0, i64 %63
  %65 = bitcast %struct.patients* %61 to i8*
  %66 = bitcast %struct.patients* %64 to i8*
  call void @llvm.memcpy.p0i8.p0i8.i64(i8* align 4 %65, i8* align 4 %66, i64 20, i1 false)
  %67 = load i32, i32* %5, align 4
  %68 = add nsw i32 %67, 1
  store i32 %68, i32* %5, align 4
  br label %69

69:                                               ; preds = %58, %47
  br label %70

70:                                               ; preds = %69
  %71 = load i32, i32* %3, align 4
  %72 = add nsw i32 %71, 1
  store i32 %72, i32* %3, align 4
  br label %36

73:                                               ; preds = %36
  store i32 1, i32* %3, align 4
  br label %74

74:                                               ; preds = %124, %73
  %75 = load i32, i32* %3, align 4
  %76 = load i32, i32* %6, align 4
  %77 = icmp slt i32 %75, %76
  br i1 %77, label %78, label %127

78:                                               ; preds = %74
  store i32 0, i32* %4, align 4
  br label %79

79:                                               ; preds = %120, %78
  %80 = load i32, i32* %4, align 4
  %81 = load i32, i32* %6, align 4
  %82 = load i32, i32* %3, align 4
  %83 = sub nsw i32 %81, %82
  %84 = icmp slt i32 %80, %83
  br i1 %84, label %85, label %123

85:                                               ; preds = %79
  %86 = load i32, i32* %4, align 4
  %87 = sext i32 %86 to i64
  %88 = getelementptr inbounds [100 x %struct.patients], [100 x %struct.patients]* %9, i64 0, i64 %87
  %89 = getelementptr inbounds %struct.patients, %struct.patients* %88, i32 0, i32 2
  %90 = load i32, i32* %89, align 4
  %91 = load i32, i32* %4, align 4
  %92 = add nsw i32 %91, 1
  %93 = sext i32 %92 to i64
  %94 = getelementptr inbounds [100 x %struct.patients], [100 x %struct.patients]* %9, i64 0, i64 %93
  %95 = getelementptr inbounds %struct.patients, %struct.patients* %94, i32 0, i32 2
  %96 = load i32, i32* %95, align 4
  %97 = icmp slt i32 %90, %96
  br i1 %97, label %98, label %119

98:                                               ; preds = %85
  %99 = load i32, i32* %4, align 4
  %100 = sext i32 %99 to i64
  %101 = getelementptr inbounds [100 x %struct.patients], [100 x %struct.patients]* %9, i64 0, i64 %100
  %102 = bitcast %struct.patients* %10 to i8*
  %103 = bitcast %struct.patients* %101 to i8*
  call void @llvm.memcpy.p0i8.p0i8.i64(i8* align 4 %102, i8* align 4 %103, i64 20, i1 false)
  %104 = load i32, i32* %4, align 4
  %105 = sext i32 %104 to i64
  %106 = getelementptr inbounds [100 x %struct.patients], [100 x %struct.patients]* %9, i64 0, i64 %105
  %107 = load i32, i32* %4, align 4
  %108 = add nsw i32 %107, 1
  %109 = sext i32 %108 to i64
  %110 = getelementptr inbounds [100 x %struct.patients], [100 x %struct.patients]* %9, i64 0, i64 %109
  %111 = bitcast %struct.patients* %106 to i8*
  %112 = bitcast %struct.patients* %110 to i8*
  call void @llvm.memcpy.p0i8.p0i8.i64(i8* align 4 %111, i8* align 4 %112, i64 20, i1 false)
  %113 = load i32, i32* %4, align 4
  %114 = add nsw i32 %113, 1
  %115 = sext i32 %114 to i64
  %116 = getelementptr inbounds [100 x %struct.patients], [100 x %struct.patients]* %9, i64 0, i64 %115
  %117 = bitcast %struct.patients* %116 to i8*
  %118 = bitcast %struct.patients* %10 to i8*
  call void @llvm.memcpy.p0i8.p0i8.i64(i8* align 4 %117, i8* align 4 %118, i64 20, i1 false)
  br label %119

119:                                              ; preds = %98, %85
  br label %120

120:                                              ; preds = %119
  %121 = load i32, i32* %4, align 4
  %122 = add nsw i32 %121, 1
  store i32 %122, i32* %4, align 4
  br label %79

123:                                              ; preds = %79
  br label %124

124:                                              ; preds = %123
  %125 = load i32, i32* %3, align 4
  %126 = add nsw i32 %125, 1
  store i32 %126, i32* %3, align 4
  br label %74

127:                                              ; preds = %74
  store i32 0, i32* %3, align 4
  br label %128

128:                                              ; preds = %139, %127
  %129 = load i32, i32* %3, align 4
  %130 = load i32, i32* %6, align 4
  %131 = icmp slt i32 %129, %130
  br i1 %131, label %132, label %142

132:                                              ; preds = %128
  %133 = load i32, i32* %3, align 4
  %134 = sext i32 %133 to i64
  %135 = getelementptr inbounds [100 x %struct.patients], [100 x %struct.patients]* %9, i64 0, i64 %134
  %136 = getelementptr inbounds %struct.patients, %struct.patients* %135, i32 0, i32 1
  %137 = getelementptr inbounds [10 x i8], [10 x i8]* %136, i64 0, i64 0
  %138 = call i32 (i8*, ...) @printf(i8* getelementptr inbounds ([4 x i8], [4 x i8]* @.str.2, i64 0, i64 0), i8* %137)
  br label %139

139:                                              ; preds = %132
  %140 = load i32, i32* %3, align 4
  %141 = add nsw i32 %140, 1
  store i32 %141, i32* %3, align 4
  br label %128

142:                                              ; preds = %128
  store i32 0, i32* %3, align 4
  br label %143

143:                                              ; preds = %154, %142
  %144 = load i32, i32* %3, align 4
  %145 = load i32, i32* %5, align 4
  %146 = icmp slt i32 %144, %145
  br i1 %146, label %147, label %157

147:                                              ; preds = %143
  %148 = load i32, i32* %3, align 4
  %149 = sext i32 %148 to i64
  %150 = getelementptr inbounds [100 x %struct.patients], [100 x %struct.patients]* %8, i64 0, i64 %149
  %151 = getelementptr inbounds %struct.patients, %struct.patients* %150, i32 0, i32 1
  %152 = getelementptr inbounds [10 x i8], [10 x i8]* %151, i64 0, i64 0
  %153 = call i32 (i8*, ...) @printf(i8* getelementptr inbounds ([4 x i8], [4 x i8]* @.str.2, i64 0, i64 0), i8* %152)
  br label %154

154:                                              ; preds = %147
  %155 = load i32, i32* %3, align 4
  %156 = add nsw i32 %155, 1
  store i32 %156, i32* %3, align 4
  br label %143

157:                                              ; preds = %143
  ret i32 0
}

declare dso_local i32 @__isoc99_scanf(i8*, ...) #1

; Function Attrs: argmemonly nounwind willreturn
declare void @llvm.memcpy.p0i8.p0i8.i64(i8* noalias nocapture writeonly, i8* noalias nocapture readonly, i64, i1 immarg) #2

declare dso_local i32 @printf(i8*, ...) #1


!llvm.module.flags = !{!0}
!llvm.ident = !{!1}

!0 = !{i32 1, !"wchar_size", i32 4}
!1 = !{!"clang version 10.0.0-4ubuntu1 "}
